target datalayout = "e-m:e-p270:32:32-p271:32:32-p272:64:64-i64:64-i128:128-f80:128-n8:16:32:64-S128"
target triple = "x86_64-pc-linux-gnu"

%struct.mbedtls_pk_info_t = type { i32, ptr, ptr, ptr, ptr, ptr, ptr, ptr, ptr, ptr, ptr, ptr }
%struct.mbedtls_pk_context = type { ptr, ptr }

; Function Attrs: nounwind uwtable
define hidden i64 @mbedtls_pk_get_bitlen(ptr noundef %0) #0 {
  %2 = alloca i64, align 8
  %3 = alloca ptr, align 8
  store ptr %0, ptr %3, align 8, !tbaa !3
  %4 = load ptr, ptr %3, align 8, !tbaa !3
  %5 = icmp eq ptr %4, null
  br i1 %5, label %11, label %6

6:                                                ; preds = %1
  %7 = load ptr, ptr %3, align 8, !tbaa !3
  %8 = getelementptr inbounds nuw %struct.mbedtls_pk_context, ptr %7, i32 0, i32 0
  %9 = load ptr, ptr %8, align 8, !tbaa !8
  %10 = icmp eq ptr %9, null
  br i1 %10, label %11, label %12

11:                                               ; preds = %6, %1
  store i64 0, ptr %2, align 8
  br label %20

12:                                               ; preds = %6
  %13 = load ptr, ptr %3, align 8, !tbaa !3
  %14 = getelementptr inbounds nuw %struct.mbedtls_pk_context, ptr %13, i32 0, i32 0
  %15 = load ptr, ptr %14, align 8, !tbaa !8
  %16 = getelementptr inbounds nuw %struct.mbedtls_pk_info_t, ptr %15, i32 0, i32 2
  %17 = load ptr, ptr %16, align 8, !tbaa !50
  %18 = load ptr, ptr %3, align 8, !tbaa !3
  %19 = call i64 %17(ptr noundef %18)
  store i64 %19, ptr %2, align 8
  br label %20

20:                                               ; preds = %12, %11
  %21 = load i64, ptr %2, align 8
  ret i64 %21
}