; Function Attrs: nounwind uwtable
define hidden i64 @mbedtls_pk_get_bitlen(ptr noundef %0) local_unnamed_addr #1 {
  %2 = icmp eq ptr %0, null
  br i1 %2, label %10, label %3

3:                                                ; preds = %1
  %4 = load ptr, ptr %0, align 8, !tbaa !3
  %5 = icmp eq ptr %4, null
  br i1 %5, label %10, label %6

6:                                                ; preds = %3
  %7 = getelementptr inbounds nuw i8, ptr %4, i64 16
  %8 = load ptr, ptr %7, align 8, !tbaa !26
  %9 = tail call i64 %8(ptr noundef nonnull %0) #7
  br label %10

10:                                               ; preds = %1, %3, %6
  %.0 = phi i64 [ %9, %6 ], [ 0, %3 ], [ 0, %1 ]
  ret i64 %.0
}